; Function Attrs: nounwind uwtable
define range(i32 -2147483647, -2147483648) i32 @Wlc_NtkExploreMem2_rec(ptr noundef readonly captures(none) %0, ptr noundef %1, ptr noundef captures(none) %2, i32 noundef %3) local_unnamed_addr #0 {
  %5 = load i16, ptr %1, align 8
  %6 = and i16 %5, 128
  %7 = icmp eq i16 %6, 0
  br i1 %7, label %.loopexit, label %.lr.ph

.lr.ph:                                           ; preds = %4
  %8 = getelementptr i8, ptr %0, i64 36
  %9 = getelementptr i8, ptr %0, i64 20
  %10 = getelementptr i8, ptr %0, i64 72
  %11 = getelementptr i8, ptr %0, i64 640
  br label %12

12:                                               ; preds = %.lr.ph, %tailrecurse
  %13 = phi i16 [ %5, %.lr.ph ], [ %32, %tailrecurse ]
  %.tr4248 = phi i32 [ %3, %.lr.ph ], [ %31, %tailrecurse ]
  %.tr4047 = phi ptr [ %1, %.lr.ph ], [ %30, %tailrecurse ]
  %14 = and i16 %13, 63
  %15 = icmp eq i16 %14, 1
  br i1 %15, label %.loopexit.sink.split, label %16

16:                                               ; preds = %12
  %17 = icmp eq i16 %14, 3
  %18 = icmp eq i32 %.tr4248, 0
  %or.cond = and i1 %18, %17
  br i1 %or.cond, label %.loopexit.sink.split, label %19

19:                                               ; preds = %16
  br i1 %17, label %tailrecurse, label %.preheader

.preheader:                                       ; preds = %19
  %20 = getelementptr i8, ptr %.tr4047, i64 4
  %.val3349 = load i32, ptr %20, align 4, !tbaa !20
  %21 = icmp sgt i32 %.val3349, 0
  br i1 %21, label %.lr.ph53, label %.loopexit.sink.split

.lr.ph53:                                         ; preds = %.preheader
  %22 = getelementptr inbounds nuw i8, ptr %.tr4047, i64 16
  br label %35

tailrecurse:                                      ; preds = %19
  %23 = getelementptr i8, ptr %.tr4047, i64 20
  %.val39 = load i32, ptr %23, align 4, !tbaa !22
  %.val5.i = load i32, ptr %8, align 4, !tbaa !26
  %24 = add nsw i32 %.val5.i, %.val39
  %.val7.i = load i32, ptr %9, align 4, !tbaa !26
  %25 = sub i32 %24, %.val7.i
  %.val.i = load ptr, ptr %10, align 8, !tbaa !3
  %.val4.i = load ptr, ptr %11, align 8, !tbaa !11
  %26 = sext i32 %25 to i64
  %27 = getelementptr inbounds i32, ptr %.val.i, i64 %26
  %28 = load i32, ptr %27, align 4, !tbaa !10
  %29 = sext i32 %28 to i64
  %30 = getelementptr inbounds %struct.Wlc_Obj_t_, ptr %.val4.i, i64 %29
  %31 = add nsw i32 %.tr4248, -1
  %32 = load i16, ptr %30, align 8
  %33 = and i16 %32, 128
  %34 = icmp eq i16 %33, 0
  br i1 %34, label %.loopexit, label %12

35:                                               ; preds = %.lr.ph53, %Wlc_ObjFaninId.exit
  %indvars.iv = phi i64 [ 0, %.lr.ph53 ], [ %indvars.iv.next, %Wlc_ObjFaninId.exit ]
  %.val3352 = phi i32 [ %.val3349, %.lr.ph53 ], [ %.val33, %Wlc_ObjFaninId.exit ]
  %.051 = phi i32 [ 0, %.lr.ph53 ], [ %47, %Wlc_ObjFaninId.exit ]
  %36 = icmp ugt i32 %.val3352, 2
  br i1 %36, label %Wlc_ObjHasArray.exit.thread.i.i, label %37

37:                                               ; preds = %35
  %38 = load i16, ptr %.tr4047, align 8
  %39 = and i16 %38, 63
  switch i16 %39, label %Wlc_ObjFaninId.exit [
    i16 6, label %Wlc_ObjHasArray.exit.thread.i.i
    i16 22, label %Wlc_ObjHasArray.exit.thread.i.i
  ]

Wlc_ObjHasArray.exit.thread.i.i:                  ; preds = %37, %37, %35
  %40 = load ptr, ptr %22, align 8, !tbaa !22
  br label %Wlc_ObjFaninId.exit

Wlc_ObjFaninId.exit:                              ; preds = %37, %Wlc_ObjHasArray.exit.thread.i.i
  %41 = phi ptr [ %40, %Wlc_ObjHasArray.exit.thread.i.i ], [ %22, %37 ]
  %42 = getelementptr inbounds nuw i32, ptr %41, i64 %indvars.iv
  %43 = load i32, ptr %42, align 4, !tbaa !10
  %.val = load ptr, ptr %11, align 8, !tbaa !11
  %44 = sext i32 %43 to i64
  %45 = getelementptr inbounds %struct.Wlc_Obj_t_, ptr %.val, i64 %44
  %46 = tail call i32 @Wlc_NtkExploreMem2_rec(ptr noundef %0, ptr noundef %45, ptr noundef %2, i32 noundef %.tr4248)
  %47 = add nsw i32 %46, %.051
  %indvars.iv.next = add nuw nsw i64 %indvars.iv, 1
  %.val33 = load i32, ptr %20, align 4, !tbaa !20
  %48 = sext i32 %.val33 to i64
  %49 = icmp slt i64 %indvars.iv.next, %48
  br i1 %49, label %35, label %.critedge.loopexit, !llvm.loop !150

.critedge.loopexit:                               ; preds = %Wlc_ObjFaninId.exit
  %50 = add nsw i32 %47, 1
  br label %.loopexit.sink.split

.loopexit.sink.split:                             ; preds = %12, %16, %.preheader, %.critedge.loopexit
  %.tr4248.lcssa62.sink = phi i32 [ %.tr4248, %.critedge.loopexit ], [ %.tr4248, %.preheader ], [ 0, %16 ], [ %.tr4248, %12 ]
  %.031.ph = phi i32 [ %50, %.critedge.loopexit ], [ 1, %.preheader ], [ 1, %16 ], [ 1, %12 ]
  %.val34 = load ptr, ptr %11, align 8, !tbaa !11
  %51 = ptrtoint ptr %.tr4047 to i64
  %52 = ptrtoint ptr %.val34 to i64
  %53 = sub i64 %51, %52
  %54 = sdiv exact i64 %53, 24
  %55 = trunc i64 %54 to i32
  tail call fastcc void @Vec_IntPushTwo(ptr noundef %2, i32 noundef %55, i32 noundef %.tr4248.lcssa62.sink)
  br label %.loopexit

.loopexit:                                        ; preds = %tailrecurse, %.loopexit.sink.split, %4
  %.031 = phi i32 [ 0, %4 ], [ %.031.ph, %.loopexit.sink.split ], [ 0, %tailrecurse ]
  ret i32 %.031
}